target datalayout = "e-m:e-p270:32:32-p271:32:32-p272:64:64-i64:64-i128:128-f80:128-n8:16:32:64-S128"
target triple = "x86_64-pc-linux-gnu"

%"class.std::deque.18" = type { %"class.std::_Deque_base.19" }
%"class.std::_Deque_base.19" = type { %"struct.std::_Deque_base<std::__cxx11::basic_string<char>, std::allocator<std::__cxx11::basic_string<char>>>::_Deque_impl" }
%"struct.std::_Deque_base<std::__cxx11::basic_string<char>, std::allocator<std::__cxx11::basic_string<char>>>::_Deque_impl" = type { %"struct.std::_Deque_base<std::__cxx11::basic_string<char>, std::allocator<std::__cxx11::basic_string<char>>>::_Deque_impl_data" }
%"struct.std::_Deque_base<std::__cxx11::basic_string<char>, std::allocator<std::__cxx11::basic_string<char>>>::_Deque_impl_data" = type { ptr, i64, %"struct.std::_Deque_iterator.23", %"struct.std::_Deque_iterator.23" }
%"struct.std::_Deque_iterator.23" = type { ptr, ptr, ptr, ptr }
%class.VOptionBool = type { i8 }
%class.VTimescale = type { i8 }
%class.V3ParseImp = type <{ ptr, ptr, ptr, ptr, ptr, ptr, i8, [3 x i8], i32, i32, %class.VOptionBool, [3 x i8], i32, i8, [3 x i8], %"class.std::deque", %"class.std::deque.0", %"class.std::deque.6", %"class.std::deque.12", %"class.std::deque.18", i64, ptr, %class.VTimescale, [7 x i8] }>
%"class.std::deque" = type { %"class.std::_Deque_base" }
%"class.std::_Deque_base" = type { %"struct.std::_Deque_base<V3ParseBisonYYSType, std::allocator<V3ParseBisonYYSType>>::_Deque_impl" }
%"struct.std::_Deque_base<V3ParseBisonYYSType, std::allocator<V3ParseBisonYYSType>>::_Deque_impl" = type { %"struct.std::_Deque_base<V3ParseBisonYYSType, std::allocator<V3ParseBisonYYSType>>::_Deque_impl_data" }
%"struct.std::_Deque_base<V3ParseBisonYYSType, std::allocator<V3ParseBisonYYSType>>::_Deque_impl_data" = type { ptr, i64, %"struct.std::_Deque_iterator", %"struct.std::_Deque_iterator" }
%"struct.std::_Deque_iterator" = type { ptr, ptr, ptr, ptr }
%"class.std::deque.0" = type { %"class.std::_Deque_base.1" }
%"class.std::_Deque_base.1" = type { %"struct.std::_Deque_base<std::__cxx11::basic_string<char> *, std::allocator<std::__cxx11::basic_string<char> *>>::_Deque_impl" }
%"struct.std::_Deque_base<std::__cxx11::basic_string<char> *, std::allocator<std::__cxx11::basic_string<char> *>>::_Deque_impl" = type { %"struct.std::_Deque_base<std::__cxx11::basic_string<char> *, std::allocator<std::__cxx11::basic_string<char> *>>::_Deque_impl_data" }
%"struct.std::_Deque_base<std::__cxx11::basic_string<char> *, std::allocator<std::__cxx11::basic_string<char> *>>::_Deque_impl_data" = type { ptr, i64, %"struct.std::_Deque_iterator.5", %"struct.std::_Deque_iterator.5" }
%"struct.std::_Deque_iterator.5" = type { ptr, ptr, ptr, ptr }
%"class.std::deque.6" = type { %"class.std::_Deque_base.7" }
%"class.std::_Deque_base.7" = type { %"struct.std::_Deque_base<V3Number *, std::allocator<V3Number *>>::_Deque_impl" }
%"struct.std::_Deque_base<V3Number *, std::allocator<V3Number *>>::_Deque_impl" = type { %"struct.std::_Deque_base<V3Number *, std::allocator<V3Number *>>::_Deque_impl_data" }
%"struct.std::_Deque_base<V3Number *, std::allocator<V3Number *>>::_Deque_impl_data" = type { ptr, i64, %"struct.std::_Deque_iterator.11", %"struct.std::_Deque_iterator.11" }
%"struct.std::_Deque_iterator.11" = type { ptr, ptr, ptr, ptr }
%"class.std::deque.12" = type { %"class.std::_Deque_base.13" }
%"class.std::_Deque_base.13" = type { %"struct.std::_Deque_base<FileLine, std::allocator<FileLine>>::_Deque_impl" }
%"struct.std::_Deque_base<FileLine, std::allocator<FileLine>>::_Deque_impl" = type { %"struct.std::_Deque_base<FileLine, std::allocator<FileLine>>::_Deque_impl_data" }
%"struct.std::_Deque_base<FileLine, std::allocator<FileLine>>::_Deque_impl_data" = type { ptr, i64, %"struct.std::_Deque_iterator.17", %"struct.std::_Deque_iterator.17" }
%"struct.std::_Deque_iterator.17" = type { ptr, ptr, ptr, ptr }

; Function Attrs: mustprogress nounwind uwtable
define linkonce_odr dso_local void @_ZN7V3LexerD2Ev(ptr noundef nonnull align 8 dereferenceable(736) %0) unnamed_addr #4 comdat align 2 {
  %2 = alloca ptr, align 8
  store ptr %0, ptr %2, align 8
  %3 = load ptr, ptr %2, align 8
  call void @_ZN11V3LexerBaseD2Ev(ptr noundef nonnull align 8 dereferenceable(732) %3) #3
  ret void
}

; Function Attrs: mustprogress nounwind uwtable
define dso_local void @_ZN10V3ParseImp10lexDestroyEv(ptr noundef nonnull align 8 dereferenceable(496) %0) #4 align 2 {
  %2 = alloca ptr, align 8
  store ptr %0, ptr %2, align 8
  %3 = load ptr, ptr %2, align 8
  %4 = getelementptr inbounds %class.V3ParseImp, ptr %3, i32 0, i32 3
  %5 = load ptr, ptr %4, align 8
  %6 = icmp ne ptr %5, null
  br i1 %6, label %7, label %20

7:                                                ; preds = %1
  br label %8

8:                                                ; preds = %7
  br label %9

9:                                                ; preds = %8
  %10 = getelementptr inbounds %class.V3ParseImp, ptr %3, i32 0, i32 3
  %11 = load ptr, ptr %10, align 8
  %12 = icmp eq ptr %11, null
  br i1 %12, label %14, label %13

13:                                               ; preds = %9
  call void @_ZN7V3LexerD2Ev(ptr noundef nonnull align 8 dereferenceable(736) %11) #3
  call void @_ZdlPv(ptr noundef %11) #23
  br label %14

14:                                               ; preds = %13, %9
  br label %15

15:                                               ; preds = %14
  br label %16

16:                                               ; preds = %15
  %17 = getelementptr inbounds %class.V3ParseImp, ptr %3, i32 0, i32 3
  store ptr null, ptr %17, align 8
  br label %18

18:                                               ; preds = %16
  br label %19

19:                                               ; preds = %18
  br label %20

20:                                               ; preds = %19, %1
  ret void
}