; Function Attrs: mustprogress nounwind uwtable
define dso_local void @_ZN10V3ParseImp10lexDestroyEv(ptr nocapture noundef nonnull align 8 dereferenceable(496) %0) #8 align 2 {
  %2 = getelementptr inbounds i8, ptr %0, i64 24
  %3 = load ptr, ptr %2, align 8
  %.not = icmp eq ptr %3, null
  br i1 %.not, label %5, label %4

4:                                                ; preds = %1
  tail call void @_ZN11V3LexerBaseD2Ev(ptr noundef nonnull align 8 dereferenceable(732) %3) #33
  tail call void @_ZdlPv(ptr noundef nonnull %3) #36
  store ptr null, ptr %2, align 8
  br label %5

5:                                                ; preds = %4, %1
  ret void
}